target datalayout = "e-m:e-p270:32:32-p271:32:32-p272:64:64-i64:64-i128:128-f80:128-n8:16:32:64-S128"
target triple = "x86_64-unknown-linux-gnu"

%"class.arrow::compute::ExecContext" = type <{ ptr, ptr, ptr, i64, i8, i8, [6 x i8] }>

; Function Attrs: mustprogress nounwind uwtable
define linkonce_odr noundef i64 @_ZNSt14numeric_limitsIlE3maxEv() #3 comdat align 2 {
entry:
  ret i64 9223372036854775807
}

; Function Attrs: mustprogress uwtable
define void @_ZN5arrow7compute11ExecContextC2EPNS_10MemoryPoolEPNS_8internal8ExecutorEPNS0_16FunctionRegistryE(ptr noundef nonnull align 8 dereferenceable(34) %this, ptr noundef %pool, ptr noundef %executor, ptr noundef %func_registry) unnamed_addr #0 align 2 {
entry:
  %this.addr = alloca ptr, align 8
  %pool.addr = alloca ptr, align 8
  %executor.addr = alloca ptr, align 8
  %func_registry.addr = alloca ptr, align 8
  store ptr %this, ptr %this.addr, align 8
  store ptr %pool, ptr %pool.addr, align 8
  store ptr %executor, ptr %executor.addr, align 8
  store ptr %func_registry, ptr %func_registry.addr, align 8
  %this1 = load ptr, ptr %this.addr, align 8
  %pool_ = getelementptr inbounds %"class.arrow::compute::ExecContext", ptr %this1, i32 0, i32 0
  %0 = load ptr, ptr %pool.addr, align 8
  store ptr %0, ptr %pool_, align 8
  %executor_ = getelementptr inbounds %"class.arrow::compute::ExecContext", ptr %this1, i32 0, i32 1
  %1 = load ptr, ptr %executor.addr, align 8
  store ptr %1, ptr %executor_, align 8
  %exec_chunksize_ = getelementptr inbounds %"class.arrow::compute::ExecContext", ptr %this1, i32 0, i32 3
  %call = call noundef i64 @_ZNSt14numeric_limitsIlE3maxEv() #1
  store i64 %call, ptr %exec_chunksize_, align 8
  %preallocate_contiguous_ = getelementptr inbounds %"class.arrow::compute::ExecContext", ptr %this1, i32 0, i32 4
  store i8 1, ptr %preallocate_contiguous_, align 8
  %use_threads_ = getelementptr inbounds %"class.arrow::compute::ExecContext", ptr %this1, i32 0, i32 5
  store i8 1, ptr %use_threads_, align 1
  %2 = load ptr, ptr %func_registry.addr, align 8
  %cmp = icmp eq ptr %2, null
  br i1 %cmp, label %cond.true, label %cond.false

cond.true:                                        ; preds = %entry
  %call2 = call noundef ptr @_ZN5arrow7compute19GetFunctionRegistryEv()
  br label %cond.end

cond.false:                                       ; preds = %entry
  %3 = load ptr, ptr %func_registry.addr, align 8
  br label %cond.end

cond.end:                                         ; preds = %cond.false, %cond.true
  %cond = phi ptr [ %call2, %cond.true ], [ %3, %cond.false ]
  %func_registry_ = getelementptr inbounds %"class.arrow::compute::ExecContext", ptr %this1, i32 0, i32 2
  store ptr %cond, ptr %func_registry_, align 8
  ret void
}