; Function Attrs: mustprogress uwtable
define void @_ZN5arrow7compute11ExecContextC2EPNS_10MemoryPoolEPNS_8internal8ExecutorEPNS0_16FunctionRegistryE(ptr nocapture noundef nonnull writeonly align 8 dereferenceable(34) %this, ptr noundef %pool, ptr noundef %executor, ptr noundef %func_registry) unnamed_addr #0 align 2 {
entry:
  store ptr %pool, ptr %this, align 8
  %executor_ = getelementptr inbounds i8, ptr %this, i64 8
  store ptr %executor, ptr %executor_, align 8
  %exec_chunksize_ = getelementptr inbounds i8, ptr %this, i64 24
  store i64 9223372036854775807, ptr %exec_chunksize_, align 8
  %preallocate_contiguous_ = getelementptr inbounds i8, ptr %this, i64 32
  store i8 1, ptr %preallocate_contiguous_, align 8
  %use_threads_ = getelementptr inbounds i8, ptr %this, i64 33
  store i8 1, ptr %use_threads_, align 1
  %cmp = icmp eq ptr %func_registry, null
  br i1 %cmp, label %cond.true, label %cond.end

cond.true:                                        ; preds = %entry
  %call2 = tail call noundef ptr @_ZN5arrow7compute19GetFunctionRegistryEv()
  br label %cond.end

cond.end:                                         ; preds = %entry, %cond.true
  %cond = phi ptr [ %call2, %cond.true ], [ %func_registry, %entry ]
  %func_registry_ = getelementptr inbounds i8, ptr %this, i64 16
  store ptr %cond, ptr %func_registry_, align 8
  ret void
}